; Function Attrs: nounwind uwtable
define internal noundef i32 @test_binary_version() #0 {
  %1 = alloca %union.anon.20, align 8
  call void @llvm.lifetime.start.p0(i64 1024, ptr nonnull %1) #21
  call void @llvm.memset.p0.i64(ptr noundef nonnull align 8 dereferenceable(24) %1, i8 0, i64 24, i1 false)
  store i8 -128, ptr %1, align 8, !tbaa !6
  %2 = getelementptr inbounds nuw i8, ptr %1, i64 1
  store i8 11, ptr %2, align 1, !tbaa !6
  %3 = getelementptr inbounds nuw i8, ptr %1, i64 2
  %4 = getelementptr inbounds nuw i8, ptr %1, i64 8
  store i32 0, ptr %4, align 8, !tbaa !6
  %5 = getelementptr inbounds nuw i8, ptr %1, i64 12
  store i32 -559038737, ptr %5, align 4, !tbaa !6
  br label %.split.us.i

.split.us.i:                                      ; preds = %18, %0
  %.0.us.i = phi i64 [ %.1.us.i, %18 ], [ 0, %0 ]
  %6 = sub nuw nsw i64 24, %.0.us.i
  %7 = load ptr, ptr @con, align 8, !tbaa !35
  %8 = getelementptr inbounds nuw i8, ptr %7, i64 16
  %9 = load ptr, ptr %8, align 8, !tbaa !39
  %10 = getelementptr inbounds i8, ptr %1, i64 %.0.us.i
  %11 = call i64 %9(ptr noundef %7, ptr noundef nonnull %10, i64 noundef %6) #21
  %12 = icmp eq i64 %11, -1
  br i1 %12, label %15, label %13

13:                                               ; preds = %.split.us.i
  %14 = add nsw i64 %11, %.0.us.i
  br label %18

15:                                               ; preds = %.split.us.i
  %16 = tail call ptr @__errno_location() #25
  %17 = load i32, ptr %16, align 4, !tbaa !9
  %.not.us.i = icmp eq i32 %17, 4
  br i1 %.not.us.i, label %18, label %.split18.us.i

18:                                               ; preds = %15, %13
  %.1.us.i = phi i64 [ %.0.us.i, %15 ], [ %14, %13 ]
  %19 = icmp ult i64 %.1.us.i, 24
  br i1 %19, label %.split.us.i, label %safe_send.exit, !llvm.loop !49

.split18.us.i:                                    ; preds = %15
  %20 = load ptr, ptr @stderr, align 8, !tbaa !44
  %21 = call ptr @strerror(i32 noundef %17) #21
  %22 = call i32 (ptr, ptr, ...) @fprintf(ptr noundef %20, ptr noundef nonnull @.str.238, ptr noundef %21) #26
  call void @abort() #22
  unreachable

safe_send.exit:                                   ; preds = %18
  %23 = call fastcc zeroext i1 @safe_recv(ptr noundef nonnull %1, i64 noundef 24)
  br i1 %23, label %24, label %safe_recv_packet.exit

24:                                               ; preds = %safe_send.exit
  %25 = load i16, ptr %3, align 2, !tbaa !6
  %rev.i.i = call noundef i16 @llvm.bswap.i16(i16 %25)
  store i16 %rev.i.i, ptr %3, align 2, !tbaa !6
  %26 = getelementptr inbounds nuw i8, ptr %1, i64 6
  %27 = load i16, ptr %26, align 2, !tbaa !6
  %rev.i14.i = call noundef i16 @llvm.bswap.i16(i16 %27)
  store i16 %rev.i14.i, ptr %26, align 2, !tbaa !6
  %28 = load i32, ptr %4, align 8, !tbaa !6
  %29 = call noundef i32 @llvm.bswap.i32(i32 %28)
  store i32 %29, ptr %4, align 8, !tbaa !6
  %30 = getelementptr inbounds nuw i8, ptr %1, i64 24
  %31 = zext i32 %29 to i64
  %32 = call fastcc zeroext i1 @safe_recv(ptr noundef %30, i64 noundef %31)
  br label %safe_recv_packet.exit

safe_recv_packet.exit:                            ; preds = %safe_send.exit, %24
  call fastcc void @validate_response_header(ptr noundef %1, i8 noundef zeroext 11, i16 noundef zeroext 0)
  call void @llvm.lifetime.end.p0(i64 1024, ptr nonnull %1) #21
  ret i32 1
}